; Function Attrs: nounwind uwtable
define hidden i32 @EC_POINT_dbl(ptr noundef %0, ptr noundef %1, ptr noundef %2, ptr noundef %3) local_unnamed_addr #1 {
  %5 = load ptr, ptr %0, align 8, !tbaa !11
  %6 = load ptr, ptr %1, align 8, !tbaa !23
  %.not = icmp eq ptr %5, %6
  br i1 %.not, label %7, label %9

7:                                                ; preds = %4
  %8 = load ptr, ptr %2, align 8, !tbaa !23
  %.not9 = icmp eq ptr %5, %8
  br i1 %.not9, label %10, label %9

9:                                                ; preds = %7, %4
  tail call void @ERR_put_error(i32 noundef 15, i32 noundef 0, i32 noundef 106, ptr noundef nonnull @.str, i32 noundef 856) #11
  br label %12

10:                                               ; preds = %7
  %11 = tail call i32 @ec_GFp_simple_dbl(ptr noundef nonnull %0, ptr noundef nonnull %1, ptr noundef nonnull %2, ptr noundef %3) #11
  br label %12

12:                                               ; preds = %10, %9
  %.0 = phi i32 [ 0, %9 ], [ %11, %10 ]
  ret i32 %.0
}